; Function Attrs: mustprogress nofree nounwind uwtable
define dso_local noundef ptr @_ZNKSt3__120__time_get_c_storageIcE7__weeksEv(ptr nonnull readnone align 8 captures(none) %0) unnamed_addr #30 align 2 personality ptr @__gxx_personality_v0 {
  %2 = load atomic i8, ptr @_ZGVZNKSt3__120__time_get_c_storageIcE7__weeksEvE5weeks acquire, align 8
  %3 = icmp eq i8 %2, 0
  br i1 %3, label %4, label %7, !prof !81

4:                                                ; preds = %1
  %5 = tail call i32 @__cxa_guard_acquire(ptr nonnull @_ZGVZNKSt3__120__time_get_c_storageIcE7__weeksEvE5weeks) #45
  %.not = icmp eq i32 %5, 0
  br i1 %.not, label %7, label %6

6:                                                ; preds = %4
  tail call fastcc void @_ZNSt3__1L10init_weeksEv()
  store ptr @_ZZNSt3__1L10init_weeksEvE5weeks, ptr @_ZZNKSt3__120__time_get_c_storageIcE7__weeksEvE5weeks, align 8, !tbaa !491
  tail call void @__cxa_guard_release(ptr nonnull @_ZGVZNKSt3__120__time_get_c_storageIcE7__weeksEvE5weeks) #45
  br label %7

7:                                                ; preds = %6, %4, %1
  %8 = load ptr, ptr @_ZZNKSt3__120__time_get_c_storageIcE7__weeksEvE5weeks, align 8, !tbaa !491
  ret ptr %8
}